target datalayout = "e-m:e-p270:32:32-p271:32:32-p272:64:64-i64:64-i128:128-f80:128-n8:16:32:64-S128"
target triple = "x86_64-pc-linux-gnu"

%"class.std::__cxx11::basic_string" = type { %"struct.std::__cxx11::basic_string<char>::_Alloc_hider", i64, %union.anon }
%"struct.std::__cxx11::basic_string<char>::_Alloc_hider" = type { ptr }
%union.anon = type { i64, [8 x i8] }

; Function Attrs: mustprogress uwtable
define dso_local void @_ZNK6cmUuid10FromDigestB5cxx11EPKhh(ptr dead_on_unwind noalias writable sret(%"class.std::__cxx11::basic_string") align 8 %0, ptr noundef nonnull align 1 dereferenceable(1) %1, ptr noundef %2, i8 noundef zeroext %3) #0 align 2 {
  %5 = alloca ptr, align 8
  %6 = alloca ptr, align 8
  %7 = alloca ptr, align 8
  %8 = alloca i8, align 1
  %9 = alloca [16 x i8], align 16
  store ptr %0, ptr %5, align 8
  store ptr %1, ptr %6, align 8, !tbaa !4
  store ptr %2, ptr %7, align 8, !tbaa !17
  store i8 %3, ptr %8, align 1, !tbaa !18
  %10 = load ptr, ptr %6, align 8
  call void @llvm.lifetime.start.p0(i64 16, ptr %9) #16
  call void @llvm.memset.p0.i64(ptr align 16 %9, i8 0, i64 16, i1 false)
  %11 = getelementptr inbounds [16 x i8], ptr %9, i64 0, i64 0
  %12 = load ptr, ptr %7, align 8, !tbaa !17
  call void @llvm.memcpy.p0.p0.i64(ptr align 16 %11, ptr align 1 %12, i64 16, i1 false)
  %13 = getelementptr inbounds [16 x i8], ptr %9, i64 0, i64 6
  %14 = load i8, ptr %13, align 2, !tbaa !18
  %15 = zext i8 %14 to i32
  %16 = and i32 %15, 15
  %17 = trunc i32 %16 to i8
  store i8 %17, ptr %13, align 2, !tbaa !18
  %18 = load i8, ptr %8, align 1, !tbaa !18
  %19 = zext i8 %18 to i32
  %20 = shl i32 %19, 4
  %21 = trunc i32 %20 to i8
  %22 = zext i8 %21 to i32
  %23 = getelementptr inbounds [16 x i8], ptr %9, i64 0, i64 6
  %24 = load i8, ptr %23, align 2, !tbaa !18
  %25 = zext i8 %24 to i32
  %26 = or i32 %25, %22
  %27 = trunc i32 %26 to i8
  store i8 %27, ptr %23, align 2, !tbaa !18
  %28 = getelementptr inbounds [16 x i8], ptr %9, i64 0, i64 8
  %29 = load i8, ptr %28, align 8, !tbaa !18
  %30 = zext i8 %29 to i32
  %31 = and i32 %30, 63
  %32 = trunc i32 %31 to i8
  store i8 %32, ptr %28, align 8, !tbaa !18
  %33 = getelementptr inbounds [16 x i8], ptr %9, i64 0, i64 8
  %34 = load i8, ptr %33, align 8, !tbaa !18
  %35 = zext i8 %34 to i32
  %36 = or i32 %35, 128
  %37 = trunc i32 %36 to i8
  store i8 %37, ptr %33, align 8, !tbaa !18
  %38 = getelementptr inbounds [16 x i8], ptr %9, i64 0, i64 0
  call void @_ZNK6cmUuid14BinaryToStringB5cxx11EPKh(ptr dead_on_unwind writable sret(%"class.std::__cxx11::basic_string") align 8 %0, ptr noundef nonnull align 1 dereferenceable(1) %10, ptr noundef %38)
  call void @llvm.lifetime.end.p0(i64 16, ptr %9) #16
  ret void
}