; Function Attrs: mustprogress uwtable
define dso_local void @_ZNK6cmUuid10FromDigestB5cxx11EPKhh(ptr dead_on_unwind noalias writable sret(%"class.std::__cxx11::basic_string") align 8 %0, ptr noundef nonnull readnone align 1 captures(none) dereferenceable(1) %1, ptr noundef readonly captures(none) %2, i8 noundef zeroext %3) local_unnamed_addr #0 align 2 {
  %5 = alloca [16 x i8], align 16
  call void @llvm.lifetime.start.p0(i64 16, ptr nonnull %5) #16
  call void @llvm.memcpy.p0.p0.i64(ptr noundef nonnull align 16 dereferenceable(16) %5, ptr noundef nonnull align 1 dereferenceable(16) %2, i64 16, i1 false)
  %6 = getelementptr inbounds nuw i8, ptr %5, i64 6
  %7 = load i8, ptr %6, align 2, !tbaa !16
  %8 = and i8 %7, 15
  %9 = shl i8 %3, 4
  %10 = or disjoint i8 %8, %9
  store i8 %10, ptr %6, align 2, !tbaa !16
  %11 = getelementptr inbounds nuw i8, ptr %5, i64 8
  %12 = load i8, ptr %11, align 8, !tbaa !16
  %13 = and i8 %12, 63
  %14 = or disjoint i8 %13, -128
  store i8 %14, ptr %11, align 8, !tbaa !16
  call void @_ZNK6cmUuid14BinaryToStringB5cxx11EPKh(ptr dead_on_unwind writable sret(%"class.std::__cxx11::basic_string") align 8 %0, ptr nonnull align 1 poison, ptr noundef nonnull %5)
  call void @llvm.lifetime.end.p0(i64 16, ptr nonnull %5) #16
  ret void
}